target datalayout = "e-m:e-p270:32:32-p271:32:32-p272:64:64-i64:64-i128:128-f80:128-n8:16:32:64-S128"
target triple = "x86_64-pc-linux-gnu"

%struct.PJconsts = type { ptr, ptr, ptr, ptr, ptr, ptr, ptr, ptr, ptr, ptr, ptr, ptr, i32, ptr, ptr, ptr, ptr, ptr, ptr, ptr, ptr, double, double, double, double, double, double, double, double, double, double, double, double, double, double, double, double, double, double, double, double, double, double, i32, i32, i32, i32, i32, i32, i32, i32, i32, i32, i32, ptr, ptr, ptr, ptr, ptr, ptr, double, double, double, double, double, double, double, double, double, double, double, i32, [7 x double], i32, ptr, ptr, double, double, i32, [4 x i8], %"class.std::shared_ptr", i8, double, i8, %"class.std::__cxx11::basic_string", %"class.std::__cxx11::basic_string", %"class.std::__cxx11::basic_string", i8, %"class.std::vector", i32, %"class.std::vector.3", i32, i8, i8, i8, ptr }
%"class.std::shared_ptr" = type { %"class.std::__shared_ptr" }
%"class.std::__shared_ptr" = type { ptr, %"class.std::__shared_count" }
%"class.std::__shared_count" = type { ptr }
%"class.std::__cxx11::basic_string" = type { %"struct.std::__cxx11::basic_string<char>::_Alloc_hider", i64, %union.anon }
%"struct.std::__cxx11::basic_string<char>::_Alloc_hider" = type { ptr }
%union.anon = type { i64, [8 x i8] }
%"class.std::vector" = type { %"struct.std::_Vector_base" }
%"struct.std::_Vector_base" = type { %"struct.std::_Vector_base<osgeo::proj::operation::GridDescription, std::allocator<osgeo::proj::operation::GridDescription>>::_Vector_impl" }
%"struct.std::_Vector_base<osgeo::proj::operation::GridDescription, std::allocator<osgeo::proj::operation::GridDescription>>::_Vector_impl" = type { %"struct.std::_Vector_base<osgeo::proj::operation::GridDescription, std::allocator<osgeo::proj::operation::GridDescription>>::_Vector_impl_data" }
%"struct.std::_Vector_base<osgeo::proj::operation::GridDescription, std::allocator<osgeo::proj::operation::GridDescription>>::_Vector_impl_data" = type { ptr, ptr, ptr }
%"class.std::vector.3" = type { %"struct.std::_Vector_base.4" }
%"struct.std::_Vector_base.4" = type { %"struct.std::_Vector_base<PJCoordOperation, std::allocator<PJCoordOperation>>::_Vector_impl" }
%"struct.std::_Vector_base<PJCoordOperation, std::allocator<PJCoordOperation>>::_Vector_impl" = type { %"struct.std::_Vector_base<PJCoordOperation, std::allocator<PJCoordOperation>>::_Vector_impl_data" }
%"struct.std::_Vector_base<PJCoordOperation, std::allocator<PJCoordOperation>>::_Vector_impl_data" = type { ptr, ptr, ptr }
%"struct.(anonymous namespace)::Pipeline" = type { ptr, ptr, %"class.std::vector.16", [4 x %"class.std::stack"] }
%"class.std::vector.16" = type { %"struct.std::_Vector_base.17" }
%"struct.std::_Vector_base.17" = type { %"struct.std::_Vector_base<(anonymous namespace)::Step, std::allocator<(anonymous namespace)::Step>>::_Vector_impl" }
%"struct.std::_Vector_base<(anonymous namespace)::Step, std::allocator<(anonymous namespace)::Step>>::_Vector_impl" = type { %"struct.std::_Vector_base<(anonymous namespace)::Step, std::allocator<(anonymous namespace)::Step>>::_Vector_impl_data" }
%"struct.std::_Vector_base<(anonymous namespace)::Step, std::allocator<(anonymous namespace)::Step>>::_Vector_impl_data" = type { ptr, ptr, ptr }
%"class.std::stack" = type { %"class.std::deque" }
%"class.std::deque" = type { %"class.std::_Deque_base" }
%"class.std::_Deque_base" = type { %"struct.std::_Deque_base<double, std::allocator<double>>::_Deque_impl" }
%"struct.std::_Deque_base<double, std::allocator<double>>::_Deque_impl" = type { %"struct.std::_Deque_base<double, std::allocator<double>>::_Deque_impl_data" }
%"struct.std::_Deque_base<double, std::allocator<double>>::_Deque_impl_data" = type { ptr, i64, %"struct.std::_Deque_iterator", %"struct.std::_Deque_iterator" }
%"struct.std::_Deque_iterator" = type { ptr, ptr, ptr, ptr }
%"struct.(anonymous namespace)::PushPop" = type { i8, i8, i8, i8 }

; Function Attrs: mustprogress nounwind uwtable
define linkonce_odr void @_ZNSt15__new_allocatorIdE9constructIdJRKdEEEvPT_DpOT0_(ptr noundef nonnull align 1 dereferenceable(1) %0, ptr noundef %1, ptr noundef nonnull align 8 dereferenceable(8) %2) #7 comdat align 2 {
  %4 = alloca ptr, align 8
  %5 = alloca ptr, align 8
  %6 = alloca ptr, align 8
  store ptr %0, ptr %4, align 8, !tbaa !181
  store ptr %1, ptr %5, align 8, !tbaa !179
  store ptr %2, ptr %6, align 8, !tbaa !179
  %7 = load ptr, ptr %5, align 8, !tbaa !179
  %8 = load ptr, ptr %6, align 8, !tbaa !179
  %9 = load double, ptr %8, align 8, !tbaa !121
  store double %9, ptr %7, align 8, !tbaa !121
  ret void
}

; Function Attrs: mustprogress nounwind uwtable
define linkonce_odr void @_ZNSt16allocator_traitsISaIdEE9constructIdJRKdEEEvRS0_PT_DpOT0_(ptr noundef nonnull align 1 dereferenceable(1) %0, ptr noundef %1, ptr noundef nonnull align 8 dereferenceable(8) %2) #7 comdat align 2 {
  %4 = alloca ptr, align 8
  %5 = alloca ptr, align 8
  %6 = alloca ptr, align 8
  store ptr %0, ptr %4, align 8, !tbaa !162
  store ptr %1, ptr %5, align 8, !tbaa !179
  store ptr %2, ptr %6, align 8, !tbaa !179
  %7 = load ptr, ptr %4, align 8, !tbaa !162
  %8 = load ptr, ptr %5, align 8, !tbaa !179
  %9 = load ptr, ptr %6, align 8, !tbaa !179
  call void @_ZNSt15__new_allocatorIdE9constructIdJRKdEEEvPT_DpOT0_(ptr noundef nonnull align 1 dereferenceable(1) %7, ptr noundef %8, ptr noundef nonnull align 8 dereferenceable(8) %9) #18
  ret void
}

; Function Attrs: mustprogress uwtable
define linkonce_odr void @_ZNSt5dequeIdSaIdEE9push_backERKd(ptr noundef nonnull align 8 dereferenceable(80) %0, ptr noundef nonnull align 8 dereferenceable(8) %1) #0 comdat align 2 {
  %3 = alloca ptr, align 8
  %4 = alloca ptr, align 8
  store ptr %0, ptr %3, align 8, !tbaa !158
  store ptr %1, ptr %4, align 8, !tbaa !179
  %5 = load ptr, ptr %3, align 8
  %6 = getelementptr inbounds nuw %"class.std::_Deque_base", ptr %5, i32 0, i32 0
  %7 = getelementptr inbounds nuw %"struct.std::_Deque_base<double, std::allocator<double>>::_Deque_impl_data", ptr %6, i32 0, i32 3
  %8 = getelementptr inbounds nuw %"struct.std::_Deque_iterator", ptr %7, i32 0, i32 0
  %9 = load ptr, ptr %8, align 8, !tbaa !206
  %10 = getelementptr inbounds nuw %"class.std::_Deque_base", ptr %5, i32 0, i32 0
  %11 = getelementptr inbounds nuw %"struct.std::_Deque_base<double, std::allocator<double>>::_Deque_impl_data", ptr %10, i32 0, i32 3
  %12 = getelementptr inbounds nuw %"struct.std::_Deque_iterator", ptr %11, i32 0, i32 2
  %13 = load ptr, ptr %12, align 8, !tbaa !213
  %14 = getelementptr inbounds double, ptr %13, i64 -1
  %15 = icmp ne ptr %9, %14
  br i1 %15, label %16, label %28

16:                                               ; preds = %2
  %17 = getelementptr inbounds nuw %"class.std::_Deque_base", ptr %5, i32 0, i32 0
  %18 = getelementptr inbounds nuw %"class.std::_Deque_base", ptr %5, i32 0, i32 0
  %19 = getelementptr inbounds nuw %"struct.std::_Deque_base<double, std::allocator<double>>::_Deque_impl_data", ptr %18, i32 0, i32 3
  %20 = getelementptr inbounds nuw %"struct.std::_Deque_iterator", ptr %19, i32 0, i32 0
  %21 = load ptr, ptr %20, align 8, !tbaa !206
  %22 = load ptr, ptr %4, align 8, !tbaa !179
  call void @_ZNSt16allocator_traitsISaIdEE9constructIdJRKdEEEvRS0_PT_DpOT0_(ptr noundef nonnull align 1 dereferenceable(1) %17, ptr noundef %21, ptr noundef nonnull align 8 dereferenceable(8) %22) #18
  %23 = getelementptr inbounds nuw %"class.std::_Deque_base", ptr %5, i32 0, i32 0
  %24 = getelementptr inbounds nuw %"struct.std::_Deque_base<double, std::allocator<double>>::_Deque_impl_data", ptr %23, i32 0, i32 3
  %25 = getelementptr inbounds nuw %"struct.std::_Deque_iterator", ptr %24, i32 0, i32 0
  %26 = load ptr, ptr %25, align 8, !tbaa !206
  %27 = getelementptr inbounds nuw double, ptr %26, i32 1
  store ptr %27, ptr %25, align 8, !tbaa !206
  br label %30

28:                                               ; preds = %2
  %29 = load ptr, ptr %4, align 8, !tbaa !179
  call void @_ZNSt5dequeIdSaIdEE16_M_push_back_auxIJRKdEEEvDpOT_(ptr noundef nonnull align 8 dereferenceable(80) %5, ptr noundef nonnull align 8 dereferenceable(8) %29)
  br label %30

30:                                               ; preds = %28, %16
  ret void
}

; Function Attrs: mustprogress uwtable
define linkonce_odr void @_ZNSt5stackIdSt5dequeIdSaIdEEE4pushERKd(ptr noundef nonnull align 8 dereferenceable(80) %0, ptr noundef nonnull align 8 dereferenceable(8) %1) #0 comdat align 2 {
  %3 = alloca ptr, align 8
  %4 = alloca ptr, align 8
  store ptr %0, ptr %3, align 8, !tbaa !156
  store ptr %1, ptr %4, align 8, !tbaa !179
  %5 = load ptr, ptr %3, align 8
  %6 = getelementptr inbounds nuw %"class.std::stack", ptr %5, i32 0, i32 0
  %7 = load ptr, ptr %4, align 8, !tbaa !179
  call void @_ZNSt5dequeIdSaIdEE9push_backERKd(ptr noundef nonnull align 8 dereferenceable(80) %6, ptr noundef nonnull align 8 dereferenceable(8) %7)
  ret void
}

; Function Attrs: mustprogress uwtable
define internal void @_ZL4pushR8PJ_COORDP8PJconsts(ptr noundef nonnull align 8 dereferenceable(32) %0, ptr noundef %1) #0 {
  %3 = alloca ptr, align 8
  %4 = alloca ptr, align 8
  %5 = alloca ptr, align 8
  %6 = alloca ptr, align 8
  store ptr %0, ptr %3, align 8, !tbaa !117
  store ptr %1, ptr %4, align 8, !tbaa !3
  %7 = load ptr, ptr %4, align 8, !tbaa !3
  %8 = getelementptr inbounds nuw %struct.PJconsts, ptr %7, i32 0, i32 5
  %9 = load ptr, ptr %8, align 8, !tbaa !98
  %10 = icmp eq ptr %9, null
  br i1 %10, label %11, label %12

11:                                               ; preds = %2
  br label %65

12:                                               ; preds = %2
  call void @llvm.lifetime.start.p0(i64 8, ptr %5) #18
  %13 = load ptr, ptr %4, align 8, !tbaa !3
  %14 = getelementptr inbounds nuw %struct.PJconsts, ptr %13, i32 0, i32 5
  %15 = load ptr, ptr %14, align 8, !tbaa !98
  %16 = getelementptr inbounds nuw %struct.PJconsts, ptr %15, i32 0, i32 11
  %17 = load ptr, ptr %16, align 8, !tbaa !79
  store ptr %17, ptr %5, align 8, !tbaa !81
  call void @llvm.lifetime.start.p0(i64 8, ptr %6) #18
  %18 = load ptr, ptr %4, align 8, !tbaa !3
  %19 = getelementptr inbounds nuw %struct.PJconsts, ptr %18, i32 0, i32 11
  %20 = load ptr, ptr %19, align 8, !tbaa !79
  store ptr %20, ptr %6, align 8, !tbaa !149
  %21 = load ptr, ptr %6, align 8, !tbaa !149
  %22 = getelementptr inbounds nuw %"struct.(anonymous namespace)::PushPop", ptr %21, i32 0, i32 0
  %23 = load i8, ptr %22, align 1, !tbaa !151, !range !110, !noundef !111
  %24 = trunc i8 %23 to i1
  br i1 %24, label %25, label %31

25:                                               ; preds = %12
  %26 = load ptr, ptr %5, align 8, !tbaa !81
  %27 = getelementptr inbounds nuw %"struct.(anonymous namespace)::Pipeline", ptr %26, i32 0, i32 3
  %28 = getelementptr inbounds [4 x %"class.std::stack"], ptr %27, i64 0, i64 0
  %29 = load ptr, ptr %3, align 8, !tbaa !117
  %30 = getelementptr inbounds [4 x double], ptr %29, i64 0, i64 0
  call void @_ZNSt5stackIdSt5dequeIdSaIdEEE4pushERKd(ptr noundef nonnull align 8 dereferenceable(80) %28, ptr noundef nonnull align 8 dereferenceable(8) %30)
  br label %31

31:                                               ; preds = %25, %12
  %32 = load ptr, ptr %6, align 8, !tbaa !149
  %33 = getelementptr inbounds nuw %"struct.(anonymous namespace)::PushPop", ptr %32, i32 0, i32 1
  %34 = load i8, ptr %33, align 1, !tbaa !153, !range !110, !noundef !111
  %35 = trunc i8 %34 to i1
  br i1 %35, label %36, label %42

36:                                               ; preds = %31
  %37 = load ptr, ptr %5, align 8, !tbaa !81
  %38 = getelementptr inbounds nuw %"struct.(anonymous namespace)::Pipeline", ptr %37, i32 0, i32 3
  %39 = getelementptr inbounds [4 x %"class.std::stack"], ptr %38, i64 0, i64 1
  %40 = load ptr, ptr %3, align 8, !tbaa !117
  %41 = getelementptr inbounds [4 x double], ptr %40, i64 0, i64 1
  call void @_ZNSt5stackIdSt5dequeIdSaIdEEE4pushERKd(ptr noundef nonnull align 8 dereferenceable(80) %39, ptr noundef nonnull align 8 dereferenceable(8) %41)
  br label %42

42:                                               ; preds = %36, %31
  %43 = load ptr, ptr %6, align 8, !tbaa !149
  %44 = getelementptr inbounds nuw %"struct.(anonymous namespace)::PushPop", ptr %43, i32 0, i32 2
  %45 = load i8, ptr %44, align 1, !tbaa !154, !range !110, !noundef !111
  %46 = trunc i8 %45 to i1
  br i1 %46, label %47, label %53

47:                                               ; preds = %42
  %48 = load ptr, ptr %5, align 8, !tbaa !81
  %49 = getelementptr inbounds nuw %"struct.(anonymous namespace)::Pipeline", ptr %48, i32 0, i32 3
  %50 = getelementptr inbounds [4 x %"class.std::stack"], ptr %49, i64 0, i64 2
  %51 = load ptr, ptr %3, align 8, !tbaa !117
  %52 = getelementptr inbounds [4 x double], ptr %51, i64 0, i64 2
  call void @_ZNSt5stackIdSt5dequeIdSaIdEEE4pushERKd(ptr noundef nonnull align 8 dereferenceable(80) %50, ptr noundef nonnull align 8 dereferenceable(8) %52)
  br label %53

53:                                               ; preds = %47, %42
  %54 = load ptr, ptr %6, align 8, !tbaa !149
  %55 = getelementptr inbounds nuw %"struct.(anonymous namespace)::PushPop", ptr %54, i32 0, i32 3
  %56 = load i8, ptr %55, align 1, !tbaa !155, !range !110, !noundef !111
  %57 = trunc i8 %56 to i1
  br i1 %57, label %58, label %64

58:                                               ; preds = %53
  %59 = load ptr, ptr %5, align 8, !tbaa !81
  %60 = getelementptr inbounds nuw %"struct.(anonymous namespace)::Pipeline", ptr %59, i32 0, i32 3
  %61 = getelementptr inbounds [4 x %"class.std::stack"], ptr %60, i64 0, i64 3
  %62 = load ptr, ptr %3, align 8, !tbaa !117
  %63 = getelementptr inbounds [4 x double], ptr %62, i64 0, i64 3
  call void @_ZNSt5stackIdSt5dequeIdSaIdEEE4pushERKd(ptr noundef nonnull align 8 dereferenceable(80) %61, ptr noundef nonnull align 8 dereferenceable(8) %63)
  br label %64

64:                                               ; preds = %58, %53
  call void @llvm.lifetime.end.p0(i64 8, ptr %6) #18
  call void @llvm.lifetime.end.p0(i64 8, ptr %5) #18
  br label %65

65:                                               ; preds = %64, %11
  ret void
}