; Function Attrs: mustprogress uwtable
define internal void @_ZL4pushR8PJ_COORDP8PJconsts(ptr noundef nonnull align 8 dereferenceable(32) %0, ptr noundef readonly captures(none) %1) #0 {
  %3 = getelementptr inbounds nuw i8, ptr %1, i64 40
  %4 = load ptr, ptr %3, align 8, !tbaa !104
  %5 = icmp eq ptr %4, null
  br i1 %5, label %_ZNSt5stackIdSt5dequeIdSaIdEEE4pushERKd.exit20, label %6

6:                                                ; preds = %2
  %7 = getelementptr inbounds nuw i8, ptr %4, i64 88
  %8 = load ptr, ptr %7, align 8, !tbaa !77
  %9 = getelementptr inbounds nuw i8, ptr %1, i64 88
  %10 = load ptr, ptr %9, align 8, !tbaa !77
  %11 = load i8, ptr %10, align 1, !tbaa !141, !range !115, !noundef !116
  %12 = trunc nuw i8 %11 to i1
  br i1 %12, label %13, label %_ZNSt5stackIdSt5dequeIdSaIdEEE4pushERKd.exit

13:                                               ; preds = %6
  %14 = getelementptr inbounds nuw i8, ptr %8, i64 88
  %15 = load ptr, ptr %14, align 8, !tbaa !143
  %16 = getelementptr inbounds nuw i8, ptr %8, i64 104
  %17 = load ptr, ptr %16, align 8, !tbaa !144
  %18 = getelementptr inbounds i8, ptr %17, i64 -8
  %.not.i.i = icmp eq ptr %15, %18
  br i1 %.not.i.i, label %22, label %19

19:                                               ; preds = %13
  %20 = load double, ptr %0, align 8, !tbaa !135
  store double %20, ptr %15, align 8, !tbaa !135
  %21 = getelementptr inbounds nuw i8, ptr %15, i64 8
  store ptr %21, ptr %14, align 8, !tbaa !143
  br label %_ZNSt5stackIdSt5dequeIdSaIdEEE4pushERKd.exit

22:                                               ; preds = %13
  %23 = getelementptr inbounds nuw i8, ptr %8, i64 40
  tail call void @_ZNSt5dequeIdSaIdEE16_M_push_back_auxIJRKdEEEvDpOT_(ptr noundef nonnull align 8 dereferenceable(80) %23, ptr noundef nonnull align 8 dereferenceable(8) %0)
  br label %_ZNSt5stackIdSt5dequeIdSaIdEEE4pushERKd.exit

_ZNSt5stackIdSt5dequeIdSaIdEEE4pushERKd.exit:     ; preds = %22, %19, %6
  %24 = getelementptr inbounds nuw i8, ptr %10, i64 1
  %25 = load i8, ptr %24, align 1, !tbaa !145, !range !115, !noundef !116
  %26 = trunc nuw i8 %25 to i1
  br i1 %26, label %27, label %_ZNSt5stackIdSt5dequeIdSaIdEEE4pushERKd.exit16

27:                                               ; preds = %_ZNSt5stackIdSt5dequeIdSaIdEEE4pushERKd.exit
  %28 = getelementptr inbounds nuw i8, ptr %0, i64 8
  %29 = getelementptr inbounds nuw i8, ptr %8, i64 168
  %30 = load ptr, ptr %29, align 8, !tbaa !143
  %31 = getelementptr inbounds nuw i8, ptr %8, i64 184
  %32 = load ptr, ptr %31, align 8, !tbaa !144
  %33 = getelementptr inbounds i8, ptr %32, i64 -8
  %.not.i.i15 = icmp eq ptr %30, %33
  br i1 %.not.i.i15, label %37, label %34

34:                                               ; preds = %27
  %35 = load double, ptr %28, align 8, !tbaa !135
  store double %35, ptr %30, align 8, !tbaa !135
  %36 = getelementptr inbounds nuw i8, ptr %30, i64 8
  store ptr %36, ptr %29, align 8, !tbaa !143
  br label %_ZNSt5stackIdSt5dequeIdSaIdEEE4pushERKd.exit16

37:                                               ; preds = %27
  %38 = getelementptr inbounds nuw i8, ptr %8, i64 120
  tail call void @_ZNSt5dequeIdSaIdEE16_M_push_back_auxIJRKdEEEvDpOT_(ptr noundef nonnull align 8 dereferenceable(80) %38, ptr noundef nonnull align 8 dereferenceable(8) %28)
  br label %_ZNSt5stackIdSt5dequeIdSaIdEEE4pushERKd.exit16

_ZNSt5stackIdSt5dequeIdSaIdEEE4pushERKd.exit16:   ; preds = %37, %34, %_ZNSt5stackIdSt5dequeIdSaIdEEE4pushERKd.exit
  %39 = getelementptr inbounds nuw i8, ptr %10, i64 2
  %40 = load i8, ptr %39, align 1, !tbaa !146, !range !115, !noundef !116
  %41 = trunc nuw i8 %40 to i1
  br i1 %41, label %42, label %_ZNSt5stackIdSt5dequeIdSaIdEEE4pushERKd.exit18

42:                                               ; preds = %_ZNSt5stackIdSt5dequeIdSaIdEEE4pushERKd.exit16
  %43 = getelementptr inbounds nuw i8, ptr %0, i64 16
  %44 = getelementptr inbounds nuw i8, ptr %8, i64 248
  %45 = load ptr, ptr %44, align 8, !tbaa !143
  %46 = getelementptr inbounds nuw i8, ptr %8, i64 264
  %47 = load ptr, ptr %46, align 8, !tbaa !144
  %48 = getelementptr inbounds i8, ptr %47, i64 -8
  %.not.i.i17 = icmp eq ptr %45, %48
  br i1 %.not.i.i17, label %52, label %49

49:                                               ; preds = %42
  %50 = load double, ptr %43, align 8, !tbaa !135
  store double %50, ptr %45, align 8, !tbaa !135
  %51 = getelementptr inbounds nuw i8, ptr %45, i64 8
  store ptr %51, ptr %44, align 8, !tbaa !143
  br label %_ZNSt5stackIdSt5dequeIdSaIdEEE4pushERKd.exit18

52:                                               ; preds = %42
  %53 = getelementptr inbounds nuw i8, ptr %8, i64 200
  tail call void @_ZNSt5dequeIdSaIdEE16_M_push_back_auxIJRKdEEEvDpOT_(ptr noundef nonnull align 8 dereferenceable(80) %53, ptr noundef nonnull align 8 dereferenceable(8) %43)
  br label %_ZNSt5stackIdSt5dequeIdSaIdEEE4pushERKd.exit18

_ZNSt5stackIdSt5dequeIdSaIdEEE4pushERKd.exit18:   ; preds = %52, %49, %_ZNSt5stackIdSt5dequeIdSaIdEEE4pushERKd.exit16
  %54 = getelementptr inbounds nuw i8, ptr %10, i64 3
  %55 = load i8, ptr %54, align 1, !tbaa !147, !range !115, !noundef !116
  %56 = trunc nuw i8 %55 to i1
  br i1 %56, label %57, label %_ZNSt5stackIdSt5dequeIdSaIdEEE4pushERKd.exit20

57:                                               ; preds = %_ZNSt5stackIdSt5dequeIdSaIdEEE4pushERKd.exit18
  %58 = getelementptr inbounds nuw i8, ptr %0, i64 24
  %59 = getelementptr inbounds nuw i8, ptr %8, i64 328
  %60 = load ptr, ptr %59, align 8, !tbaa !143
  %61 = getelementptr inbounds nuw i8, ptr %8, i64 344
  %62 = load ptr, ptr %61, align 8, !tbaa !144
  %63 = getelementptr inbounds i8, ptr %62, i64 -8
  %.not.i.i19 = icmp eq ptr %60, %63
  br i1 %.not.i.i19, label %67, label %64

64:                                               ; preds = %57
  %65 = load double, ptr %58, align 8, !tbaa !135
  store double %65, ptr %60, align 8, !tbaa !135
  %66 = getelementptr inbounds nuw i8, ptr %60, i64 8
  store ptr %66, ptr %59, align 8, !tbaa !143
  br label %_ZNSt5stackIdSt5dequeIdSaIdEEE4pushERKd.exit20

67:                                               ; preds = %57
  %68 = getelementptr inbounds nuw i8, ptr %8, i64 280
  tail call void @_ZNSt5dequeIdSaIdEE16_M_push_back_auxIJRKdEEEvDpOT_(ptr noundef nonnull align 8 dereferenceable(80) %68, ptr noundef nonnull align 8 dereferenceable(8) %58)
  br label %_ZNSt5stackIdSt5dequeIdSaIdEEE4pushERKd.exit20

_ZNSt5stackIdSt5dequeIdSaIdEEE4pushERKd.exit20:   ; preds = %67, %64, %_ZNSt5stackIdSt5dequeIdSaIdEEE4pushERKd.exit18, %2
  ret void
}